target datalayout = "e-m:e-p270:32:32-p271:32:32-p272:64:64-i64:64-i128:128-f80:128-n8:16:32:64-S128"
target triple = "x86_64-pc-linux-gnu"

%struct.TokenAuxData = type { %union.YYSTYPE, i32, i32 }
%union.YYSTYPE = type { %struct.PLwdatum }
%struct.PLwdatum = type { ptr, ptr, i8, ptr }
%struct.yyguts_t = type { ptr }
%struct.plpgsql_yy_extra_type = type { %struct.core_yy_extra_type, ptr, i32, i32, i32, [4 x i32], [4 x %struct.TokenAuxData], ptr, ptr, i32 }
%struct.core_yy_extra_type = type { ptr, i64, ptr, ptr, i32, i8, i8, ptr, i32, i32, i32, i32, ptr, i32, i32, i8, i8 }

@.str = private unnamed_addr constant [11 x i8] c"plpgsql-18\00", align 1
@.str.2 = private unnamed_addr constant [13 x i8] c"pl_scanner.c\00", align 1
@.str.7 = private unnamed_addr constant [28 x i8] c"too many tokens pushed back\00", align 1
@__func__.push_back_token = private unnamed_addr constant [16 x i8] c"push_back_token\00", align 1

; Function Attrs: nounwind uwtable
define internal void @push_back_token(i32 noundef %0, ptr noundef %1, ptr noundef %2) #0 {
  %4 = alloca i32, align 4
  %5 = alloca ptr, align 8
  %6 = alloca ptr, align 8
  store i32 %0, ptr %4, align 4
  store ptr %1, ptr %5, align 8
  store ptr %2, ptr %6, align 8
  %7 = load ptr, ptr %6, align 8
  %8 = getelementptr inbounds nuw %struct.yyguts_t, ptr %7, i32 0, i32 0
  %9 = load ptr, ptr %8, align 8
  %10 = getelementptr inbounds nuw %struct.plpgsql_yy_extra_type, ptr %9, i32 0, i32 4
  %11 = load i32, ptr %10, align 8
  %12 = icmp sge i32 %11, 4
  br i1 %12, label %13, label %23

13:                                               ; preds = %3
  br label %14

14:                                               ; preds = %13
  br i1 true, label %15, label %17

15:                                               ; preds = %14
  %16 = call zeroext i1 @errstart_cold(i32 noundef 21, ptr noundef @.str) #10
  br i1 %16, label %19, label %21

17:                                               ; preds = %14
  %18 = call zeroext i1 @errstart(i32 noundef 21, ptr noundef @.str)
  br i1 %18, label %19, label %21

19:                                               ; preds = %17, %15
  %20 = call i32 (ptr, ...) @errmsg_internal(ptr noundef @.str.7)
  call void @errfinish(ptr noundef @.str.2, i32 noundef 388, ptr noundef @__func__.push_back_token)
  br label %21

21:                                               ; preds = %19, %17, %15
  unreachable

22:                                               ; No predecessors!
  br label %23

23:                                               ; preds = %22, %3
  %24 = load i32, ptr %4, align 4
  %25 = load ptr, ptr %6, align 8
  %26 = getelementptr inbounds nuw %struct.yyguts_t, ptr %25, i32 0, i32 0
  %27 = load ptr, ptr %26, align 8
  %28 = getelementptr inbounds nuw %struct.plpgsql_yy_extra_type, ptr %27, i32 0, i32 5
  %29 = load ptr, ptr %6, align 8
  %30 = getelementptr inbounds nuw %struct.yyguts_t, ptr %29, i32 0, i32 0
  %31 = load ptr, ptr %30, align 8
  %32 = getelementptr inbounds nuw %struct.plpgsql_yy_extra_type, ptr %31, i32 0, i32 4
  %33 = load i32, ptr %32, align 8
  %34 = sext i32 %33 to i64
  %35 = getelementptr inbounds [4 x i32], ptr %28, i64 0, i64 %34
  store i32 %24, ptr %35, align 4
  %36 = load ptr, ptr %6, align 8
  %37 = getelementptr inbounds nuw %struct.yyguts_t, ptr %36, i32 0, i32 0
  %38 = load ptr, ptr %37, align 8
  %39 = getelementptr inbounds nuw %struct.plpgsql_yy_extra_type, ptr %38, i32 0, i32 6
  %40 = load ptr, ptr %6, align 8
  %41 = getelementptr inbounds nuw %struct.yyguts_t, ptr %40, i32 0, i32 0
  %42 = load ptr, ptr %41, align 8
  %43 = getelementptr inbounds nuw %struct.plpgsql_yy_extra_type, ptr %42, i32 0, i32 4
  %44 = load i32, ptr %43, align 8
  %45 = sext i32 %44 to i64
  %46 = getelementptr inbounds [4 x %struct.TokenAuxData], ptr %39, i64 0, i64 %45
  %47 = load ptr, ptr %5, align 8
  call void @llvm.memcpy.p0.p0.i64(ptr align 8 %46, ptr align 8 %47, i64 40, i1 false)
  %48 = load ptr, ptr %6, align 8
  %49 = getelementptr inbounds nuw %struct.yyguts_t, ptr %48, i32 0, i32 0
  %50 = load ptr, ptr %49, align 8
  %51 = getelementptr inbounds nuw %struct.plpgsql_yy_extra_type, ptr %50, i32 0, i32 4
  %52 = load i32, ptr %51, align 8
  %53 = add i32 %52, 1
  store i32 %53, ptr %51, align 8
  ret void
}

; Function Attrs: nounwind uwtable
define hidden void @plpgsql_peek2(ptr noundef %0, ptr noundef %1, ptr noundef %2, ptr noundef %3, ptr noundef %4) #0 {
  %6 = alloca ptr, align 8
  %7 = alloca ptr, align 8
  %8 = alloca ptr, align 8
  %9 = alloca ptr, align 8
  %10 = alloca ptr, align 8
  %11 = alloca i32, align 4
  %12 = alloca i32, align 4
  %13 = alloca %struct.TokenAuxData, align 8
  %14 = alloca %struct.TokenAuxData, align 8
  store ptr %0, ptr %6, align 8
  store ptr %1, ptr %7, align 8
  store ptr %2, ptr %8, align 8
  store ptr %3, ptr %9, align 8
  store ptr %4, ptr %10, align 8
  call void @llvm.lifetime.start.p0(i64 4, ptr %11) #8
  call void @llvm.lifetime.start.p0(i64 4, ptr %12) #8
  call void @llvm.lifetime.start.p0(i64 40, ptr %13) #8
  call void @llvm.lifetime.start.p0(i64 40, ptr %14) #8
  %15 = load ptr, ptr %10, align 8
  %16 = call i32 @internal_yylex(ptr noundef %13, ptr noundef %15)
  store i32 %16, ptr %11, align 4
  %17 = load ptr, ptr %10, align 8
  %18 = call i32 @internal_yylex(ptr noundef %14, ptr noundef %17)
  store i32 %18, ptr %12, align 4
  %19 = load i32, ptr %11, align 4
  %20 = load ptr, ptr %6, align 8
  store i32 %19, ptr %20, align 4
  %21 = load ptr, ptr %8, align 8
  %22 = icmp ne ptr %21, null
  br i1 %22, label %23, label %27

23:                                               ; preds = %5
  %24 = getelementptr inbounds nuw %struct.TokenAuxData, ptr %13, i32 0, i32 1
  %25 = load i32, ptr %24, align 8
  %26 = load ptr, ptr %8, align 8
  store i32 %25, ptr %26, align 4
  br label %27

27:                                               ; preds = %23, %5
  %28 = load i32, ptr %12, align 4
  %29 = load ptr, ptr %7, align 8
  store i32 %28, ptr %29, align 4
  %30 = load ptr, ptr %9, align 8
  %31 = icmp ne ptr %30, null
  br i1 %31, label %32, label %36

32:                                               ; preds = %27
  %33 = getelementptr inbounds nuw %struct.TokenAuxData, ptr %14, i32 0, i32 1
  %34 = load i32, ptr %33, align 8
  %35 = load ptr, ptr %9, align 8
  store i32 %34, ptr %35, align 4
  br label %36

36:                                               ; preds = %32, %27
  %37 = load i32, ptr %12, align 4
  %38 = load ptr, ptr %10, align 8
  call void @push_back_token(i32 noundef %37, ptr noundef %14, ptr noundef %38)
  %39 = load i32, ptr %11, align 4
  %40 = load ptr, ptr %10, align 8
  call void @push_back_token(i32 noundef %39, ptr noundef %13, ptr noundef %40)
  call void @llvm.lifetime.end.p0(i64 40, ptr %14) #8
  call void @llvm.lifetime.end.p0(i64 40, ptr %13) #8
  call void @llvm.lifetime.end.p0(i64 4, ptr %12) #8
  call void @llvm.lifetime.end.p0(i64 4, ptr %11) #8
  ret void
}