; Function Attrs: nounwind uwtable
define hidden void @plpgsql_peek2(ptr noundef writeonly captures(none) initializes((0, 4)) %0, ptr noundef writeonly captures(none) initializes((0, 4)) %1, ptr noundef writeonly captures(address_is_null) %2, ptr noundef writeonly captures(address_is_null) %3, ptr noundef %4) local_unnamed_addr #0 {
  %6 = alloca %struct.TokenAuxData, align 8
  %7 = alloca %struct.TokenAuxData, align 8
  call void @llvm.lifetime.start.p0(i64 40, ptr nonnull %6) #12
  call void @llvm.lifetime.start.p0(i64 40, ptr nonnull %7) #12
  %8 = call fastcc i32 @internal_yylex(ptr noundef %6, ptr noundef %4)
  %9 = call fastcc i32 @internal_yylex(ptr noundef %7, ptr noundef %4)
  store i32 %8, ptr %0, align 4
  %.not = icmp eq ptr %2, null
  br i1 %.not, label %13, label %10

10:                                               ; preds = %5
  %11 = getelementptr inbounds nuw i8, ptr %6, i64 32
  %12 = load i32, ptr %11, align 8
  store i32 %12, ptr %2, align 4
  br label %13

13:                                               ; preds = %10, %5
  store i32 %9, ptr %1, align 4
  %.not14 = icmp eq ptr %3, null
  br i1 %.not14, label %17, label %14

14:                                               ; preds = %13
  %15 = getelementptr inbounds nuw i8, ptr %7, i64 32
  %16 = load i32, ptr %15, align 8
  store i32 %16, ptr %3, align 4
  br label %17

17:                                               ; preds = %14, %13
  %18 = load ptr, ptr %4, align 8
  %19 = getelementptr inbounds nuw i8, ptr %18, i64 104
  %20 = load i32, ptr %19, align 8
  %21 = icmp sgt i32 %20, 3
  br i1 %21, label %22, label %push_back_token.exit

22:                                               ; preds = %17
  %23 = call zeroext i1 @errstart_cold(i32 noundef 21, ptr noundef nonnull @.str) #13
  call void @llvm.assume(i1 %23)
  %24 = call i32 (ptr, ...) @errmsg_internal(ptr noundef nonnull @.str.7) #12
  call void @errfinish(ptr noundef nonnull @.str.2, i32 noundef 388, ptr noundef nonnull @__func__.push_back_token) #12
  unreachable

push_back_token.exit:                             ; preds = %17
  %25 = getelementptr inbounds nuw i8, ptr %18, i64 108
  %26 = sext i32 %20 to i64
  %27 = getelementptr inbounds [4 x i32], ptr %25, i64 0, i64 %26
  store i32 %9, ptr %27, align 4
  %28 = load ptr, ptr %4, align 8
  %29 = getelementptr inbounds nuw i8, ptr %28, i64 128
  %30 = getelementptr inbounds nuw i8, ptr %28, i64 104
  %31 = load i32, ptr %30, align 8
  %32 = sext i32 %31 to i64
  %33 = getelementptr inbounds [4 x %struct.TokenAuxData], ptr %29, i64 0, i64 %32
  call void @llvm.memcpy.p0.p0.i64(ptr noundef nonnull align 8 dereferenceable(40) %33, ptr noundef nonnull readonly align 8 dereferenceable(40) %7, i64 40, i1 false)
  %34 = load ptr, ptr %4, align 8
  %35 = getelementptr inbounds nuw i8, ptr %34, i64 104
  %36 = load i32, ptr %35, align 8
  %37 = add i32 %36, 1
  store i32 %37, ptr %35, align 8
  %38 = load ptr, ptr %4, align 8
  %39 = getelementptr inbounds nuw i8, ptr %38, i64 104
  %40 = load i32, ptr %39, align 8
  %41 = icmp sgt i32 %40, 3
  br i1 %41, label %42, label %push_back_token.exit15

42:                                               ; preds = %push_back_token.exit
  %43 = call zeroext i1 @errstart_cold(i32 noundef 21, ptr noundef nonnull @.str) #13
  call void @llvm.assume(i1 %43)
  %44 = call i32 (ptr, ...) @errmsg_internal(ptr noundef nonnull @.str.7) #12
  call void @errfinish(ptr noundef nonnull @.str.2, i32 noundef 388, ptr noundef nonnull @__func__.push_back_token) #12
  unreachable

push_back_token.exit15:                           ; preds = %push_back_token.exit
  %45 = getelementptr inbounds nuw i8, ptr %38, i64 108
  %46 = sext i32 %40 to i64
  %47 = getelementptr inbounds [4 x i32], ptr %45, i64 0, i64 %46
  store i32 %8, ptr %47, align 4
  %48 = load ptr, ptr %4, align 8
  %49 = getelementptr inbounds nuw i8, ptr %48, i64 128
  %50 = getelementptr inbounds nuw i8, ptr %48, i64 104
  %51 = load i32, ptr %50, align 8
  %52 = sext i32 %51 to i64
  %53 = getelementptr inbounds [4 x %struct.TokenAuxData], ptr %49, i64 0, i64 %52
  call void @llvm.memcpy.p0.p0.i64(ptr noundef nonnull align 8 dereferenceable(40) %53, ptr noundef nonnull readonly align 8 dereferenceable(40) %6, i64 40, i1 false)
  %54 = load ptr, ptr %4, align 8
  %55 = getelementptr inbounds nuw i8, ptr %54, i64 104
  %56 = load i32, ptr %55, align 8
  %57 = add i32 %56, 1
  store i32 %57, ptr %55, align 8
  call void @llvm.lifetime.end.p0(i64 40, ptr nonnull %7) #12
  call void @llvm.lifetime.end.p0(i64 40, ptr nonnull %6) #12
  ret void
}